target datalayout = "e-m:e-p270:32:32-p271:32:32-p272:64:64-i64:64-i128:128-f80:128-n8:16:32:64-S128"
target triple = "x86_64-pc-linux-gnu"

@.str.2 = private unnamed_addr constant [17 x i8] c"0123456789abcdef\00", align 1

; Function Attrs: nounwind sspstrong uwtable
define void @ossl_bin2hex(ptr noundef %0, ptr noundef %1, i64 noundef %2) #0 {
  %4 = alloca ptr, align 8
  %5 = alloca ptr, align 8
  %6 = alloca i64, align 8
  %7 = alloca ptr, align 8
  %8 = alloca i64, align 8
  %9 = alloca i8, align 1
  store ptr %0, ptr %4, align 8, !tbaa !19
  store ptr %1, ptr %5, align 8, !tbaa !19
  store i64 %2, ptr %6, align 8, !tbaa !6
  call void @llvm.lifetime.start.p0(i64 8, ptr %7) #22
  store ptr @.str.2, ptr %7, align 8, !tbaa !19
  call void @llvm.lifetime.start.p0(i64 8, ptr %8) #22
  store i64 0, ptr %8, align 8, !tbaa !6
  br label %10

10:                                               ; preds = %43, %3
  %11 = load i64, ptr %8, align 8, !tbaa !6
  %12 = load i64, ptr %6, align 8, !tbaa !6
  %13 = icmp ult i64 %11, %12
  br i1 %13, label %14, label %46

14:                                               ; preds = %10
  call void @llvm.lifetime.start.p0(i64 1, ptr %9) #22
  %15 = load ptr, ptr %4, align 8, !tbaa !19
  %16 = load i64, ptr %8, align 8, !tbaa !6
  %17 = getelementptr inbounds nuw i8, ptr %15, i64 %16
  %18 = load i8, ptr %17, align 1, !tbaa !21
  store i8 %18, ptr %9, align 1, !tbaa !21
  %19 = load ptr, ptr %7, align 8, !tbaa !19
  %20 = load i8, ptr %9, align 1, !tbaa !21
  %21 = zext i8 %20 to i32
  %22 = ashr i32 %21, 4
  %23 = sext i32 %22 to i64
  %24 = getelementptr inbounds i8, ptr %19, i64 %23
  %25 = load i8, ptr %24, align 1, !tbaa !21
  %26 = load ptr, ptr %5, align 8, !tbaa !19
  %27 = load i64, ptr %8, align 8, !tbaa !6
  %28 = mul i64 %27, 2
  %29 = add i64 %28, 0
  %30 = getelementptr inbounds nuw i8, ptr %26, i64 %29
  store i8 %25, ptr %30, align 1, !tbaa !21
  %31 = load ptr, ptr %7, align 8, !tbaa !19
  %32 = load i8, ptr %9, align 1, !tbaa !21
  %33 = zext i8 %32 to i32
  %34 = and i32 %33, 15
  %35 = sext i32 %34 to i64
  %36 = getelementptr inbounds i8, ptr %31, i64 %35
  %37 = load i8, ptr %36, align 1, !tbaa !21
  %38 = load ptr, ptr %5, align 8, !tbaa !19
  %39 = load i64, ptr %8, align 8, !tbaa !6
  %40 = mul i64 %39, 2
  %41 = add i64 %40, 1
  %42 = getelementptr inbounds nuw i8, ptr %38, i64 %41
  store i8 %37, ptr %42, align 1, !tbaa !21
  call void @llvm.lifetime.end.p0(i64 1, ptr %9) #22
  br label %43

43:                                               ; preds = %14
  %44 = load i64, ptr %8, align 8, !tbaa !6
  %45 = add i64 %44, 1
  store i64 %45, ptr %8, align 8, !tbaa !6
  br label %10, !llvm.loop !36

46:                                               ; preds = %10
  call void @llvm.lifetime.end.p0(i64 8, ptr %8) #22
  call void @llvm.lifetime.end.p0(i64 8, ptr %7) #22
  ret void
}