; Function Attrs: nofree norecurse nosync nounwind sspstrong memory(argmem: readwrite) uwtable
define void @ossl_bin2hex(ptr noundef readonly captures(none) %0, ptr noundef writeonly captures(none) %1, i64 noundef %2) local_unnamed_addr #6 {
  %.not = icmp eq i64 %2, 0
  br i1 %.not, label %._crit_edge, label %.lr.ph

.lr.ph:                                           ; preds = %3, %.lr.ph
  %.012 = phi i64 [ %19, %.lr.ph ], [ 0, %3 ]
  %4 = getelementptr inbounds nuw i8, ptr %0, i64 %.012
  %5 = load i8, ptr %4, align 1, !tbaa !14
  %6 = zext i8 %5 to i32
  %7 = lshr i32 %6, 4
  %8 = zext nneg i32 %7 to i64
  %9 = getelementptr inbounds nuw i8, ptr @.str.2, i64 %8
  %10 = load i8, ptr %9, align 1, !tbaa !14
  %11 = shl i64 %.012, 1
  %12 = getelementptr inbounds nuw i8, ptr %1, i64 %11
  store i8 %10, ptr %12, align 1, !tbaa !14
  %13 = and i32 %6, 15
  %14 = zext nneg i32 %13 to i64
  %15 = getelementptr inbounds nuw i8, ptr @.str.2, i64 %14
  %16 = load i8, ptr %15, align 1, !tbaa !14
  %17 = or disjoint i64 %11, 1
  %18 = getelementptr inbounds nuw i8, ptr %1, i64 %17
  store i8 %16, ptr %18, align 1, !tbaa !14
  %19 = add nuw i64 %.012, 1
  %exitcond.not = icmp eq i64 %19, %2
  br i1 %exitcond.not, label %._crit_edge, label %.lr.ph, !llvm.loop !29

._crit_edge:                                      ; preds = %.lr.ph, %3
  ret void
}